target datalayout = "e-m:e-p270:32:32-p271:32:32-p272:64:64-i64:64-i128:128-f80:128-n8:16:32:64-S128"
target triple = "x86_64-pc-linux-gnu"

@hf_cigi3_line_of_sight_extended_response_los_id = internal global i32 0, align 4
@hf_cigi3_line_of_sight_extended_response_valid = internal global i32 0, align 4
@hf_cigi3_line_of_sight_extended_response_entity_id_valid = internal global i32 0, align 4
@hf_cigi3_line_of_sight_extended_response_range_valid = internal global i32 0, align 4
@hf_cigi3_line_of_sight_extended_response_visible = internal global i32 0, align 4
@hf_cigi3_line_of_sight_extended_response_intersection_coord = internal global i32 0, align 4
@hf_cigi3_line_of_sight_extended_response_response_count = internal global i32 0, align 4
@hf_cigi3_line_of_sight_extended_response_entity_id = internal global i32 0, align 4
@hf_cigi3_line_of_sight_extended_response_range = internal global i32 0, align 4
@hf_cigi3_line_of_sight_extended_response_lat_xoff = internal global i32 0, align 4
@hf_cigi3_line_of_sight_extended_response_lon_yoff = internal global i32 0, align 4
@hf_cigi3_line_of_sight_extended_response_alt_zoff = internal global i32 0, align 4
@hf_cigi3_line_of_sight_extended_response_red = internal global i32 0, align 4
@hf_cigi3_line_of_sight_extended_response_green = internal global i32 0, align 4
@hf_cigi3_line_of_sight_extended_response_blue = internal global i32 0, align 4
@hf_cigi3_line_of_sight_extended_response_alpha = internal global i32 0, align 4
@hf_cigi3_line_of_sight_extended_response_material_code = internal global i32 0, align 4
@hf_cigi3_line_of_sight_extended_response_normal_vector_azimuth = internal global i32 0, align 4
@hf_cigi3_line_of_sight_extended_response_normal_vector_elevation = internal global i32 0, align 4
@hf_cigi3_2_line_of_sight_extended_response_host_frame_number_lsn = internal global i32 0, align 4
@cigi_byte_order = internal global i32 0, align 4
@cigi_minor_version = internal global i32 0, align 4

; Function Attrs: null_pointer_is_valid sspstrong uwtable
define internal i32 @cigi3_add_line_of_sight_extended_response(ptr noundef %0, ptr noundef %1, ptr noundef %2, ptr noundef %3) #0 {
  %5 = alloca ptr, align 8
  %6 = alloca ptr, align 8
  %7 = alloca ptr, align 8
  %8 = alloca ptr, align 8
  %9 = alloca i32, align 4
  store ptr %0, ptr %5, align 8
  store ptr %1, ptr %6, align 8
  store ptr %2, ptr %7, align 8
  store ptr %3, ptr %8, align 8
  call void @llvm.lifetime.start.p0(i64 4, ptr %9) #5
  store i32 0, ptr %9, align 4
  %10 = load ptr, ptr %7, align 8
  %11 = load i32, ptr @hf_cigi3_line_of_sight_extended_response_los_id, align 4
  %12 = load ptr, ptr %5, align 8
  %13 = load i32, ptr %9, align 4
  %14 = load i32, ptr @cigi_byte_order, align 4
  %15 = call ptr @proto_tree_add_item(ptr noundef %10, i32 noundef %11, ptr noundef %12, i32 noundef %13, i32 noundef 2, i32 noundef %14)
  %16 = load i32, ptr %9, align 4
  %17 = add i32 %16, 2
  store i32 %17, ptr %9, align 4
  %18 = load ptr, ptr %7, align 8
  %19 = load i32, ptr @hf_cigi3_line_of_sight_extended_response_valid, align 4
  %20 = load ptr, ptr %5, align 8
  %21 = load i32, ptr %9, align 4
  %22 = load i32, ptr @cigi_byte_order, align 4
  %23 = call ptr @proto_tree_add_item(ptr noundef %18, i32 noundef %19, ptr noundef %20, i32 noundef %21, i32 noundef 1, i32 noundef %22)
  %24 = load ptr, ptr %7, align 8
  %25 = load i32, ptr @hf_cigi3_line_of_sight_extended_response_entity_id_valid, align 4
  %26 = load ptr, ptr %5, align 8
  %27 = load i32, ptr %9, align 4
  %28 = load i32, ptr @cigi_byte_order, align 4
  %29 = call ptr @proto_tree_add_item(ptr noundef %24, i32 noundef %25, ptr noundef %26, i32 noundef %27, i32 noundef 1, i32 noundef %28)
  %30 = load ptr, ptr %7, align 8
  %31 = load i32, ptr @hf_cigi3_line_of_sight_extended_response_range_valid, align 4
  %32 = load ptr, ptr %5, align 8
  %33 = load i32, ptr %9, align 4
  %34 = load i32, ptr @cigi_byte_order, align 4
  %35 = call ptr @proto_tree_add_item(ptr noundef %30, i32 noundef %31, ptr noundef %32, i32 noundef %33, i32 noundef 1, i32 noundef %34)
  %36 = load ptr, ptr %7, align 8
  %37 = load i32, ptr @hf_cigi3_line_of_sight_extended_response_visible, align 4
  %38 = load ptr, ptr %5, align 8
  %39 = load i32, ptr %9, align 4
  %40 = load i32, ptr @cigi_byte_order, align 4
  %41 = call ptr @proto_tree_add_item(ptr noundef %36, i32 noundef %37, ptr noundef %38, i32 noundef %39, i32 noundef 1, i32 noundef %40)
  %42 = load i32, ptr @cigi_minor_version, align 4
  %43 = icmp sge i32 %42, 2
  br i1 %43, label %44, label %51

44:                                               ; preds = %4
  %45 = load ptr, ptr %7, align 8
  %46 = load i32, ptr @hf_cigi3_2_line_of_sight_extended_response_host_frame_number_lsn, align 4
  %47 = load ptr, ptr %5, align 8
  %48 = load i32, ptr %9, align 4
  %49 = load i32, ptr @cigi_byte_order, align 4
  %50 = call ptr @proto_tree_add_item(ptr noundef %45, i32 noundef %46, ptr noundef %47, i32 noundef %48, i32 noundef 1, i32 noundef %49)
  br label %58

51:                                               ; preds = %4
  %52 = load ptr, ptr %7, align 8
  %53 = load i32, ptr @hf_cigi3_line_of_sight_extended_response_intersection_coord, align 4
  %54 = load ptr, ptr %5, align 8
  %55 = load i32, ptr %9, align 4
  %56 = load i32, ptr @cigi_byte_order, align 4
  %57 = call ptr @proto_tree_add_item(ptr noundef %52, i32 noundef %53, ptr noundef %54, i32 noundef %55, i32 noundef 1, i32 noundef %56)
  br label %58

58:                                               ; preds = %51, %44
  %59 = load i32, ptr %9, align 4
  %60 = add i32 %59, 1
  store i32 %60, ptr %9, align 4
  %61 = load ptr, ptr %7, align 8
  %62 = load i32, ptr @hf_cigi3_line_of_sight_extended_response_response_count, align 4
  %63 = load ptr, ptr %5, align 8
  %64 = load i32, ptr %9, align 4
  %65 = load i32, ptr @cigi_byte_order, align 4
  %66 = call ptr @proto_tree_add_item(ptr noundef %61, i32 noundef %62, ptr noundef %63, i32 noundef %64, i32 noundef 1, i32 noundef %65)
  %67 = load i32, ptr %9, align 4
  %68 = add i32 %67, 1
  store i32 %68, ptr %9, align 4
  %69 = load ptr, ptr %7, align 8
  %70 = load i32, ptr @hf_cigi3_line_of_sight_extended_response_entity_id, align 4
  %71 = load ptr, ptr %5, align 8
  %72 = load i32, ptr %9, align 4
  %73 = load i32, ptr @cigi_byte_order, align 4
  %74 = call ptr @proto_tree_add_item(ptr noundef %69, i32 noundef %70, ptr noundef %71, i32 noundef %72, i32 noundef 2, i32 noundef %73)
  %75 = load i32, ptr %9, align 4
  %76 = add i32 %75, 2
  store i32 %76, ptr %9, align 4
  %77 = load ptr, ptr %7, align 8
  %78 = load i32, ptr @hf_cigi3_line_of_sight_extended_response_range, align 4
  %79 = load ptr, ptr %5, align 8
  %80 = load i32, ptr %9, align 4
  %81 = load i32, ptr @cigi_byte_order, align 4
  %82 = call ptr @proto_tree_add_item(ptr noundef %77, i32 noundef %78, ptr noundef %79, i32 noundef %80, i32 noundef 8, i32 noundef %81)
  %83 = load i32, ptr %9, align 4
  %84 = add i32 %83, 8
  store i32 %84, ptr %9, align 4
  %85 = load ptr, ptr %7, align 8
  %86 = load i32, ptr @hf_cigi3_line_of_sight_extended_response_lat_xoff, align 4
  %87 = load ptr, ptr %5, align 8
  %88 = load i32, ptr %9, align 4
  %89 = load i32, ptr @cigi_byte_order, align 4
  %90 = call ptr @proto_tree_add_item(ptr noundef %85, i32 noundef %86, ptr noundef %87, i32 noundef %88, i32 noundef 8, i32 noundef %89)
  %91 = load i32, ptr %9, align 4
  %92 = add i32 %91, 8
  store i32 %92, ptr %9, align 4
  %93 = load ptr, ptr %7, align 8
  %94 = load i32, ptr @hf_cigi3_line_of_sight_extended_response_lon_yoff, align 4
  %95 = load ptr, ptr %5, align 8
  %96 = load i32, ptr %9, align 4
  %97 = load i32, ptr @cigi_byte_order, align 4
  %98 = call ptr @proto_tree_add_item(ptr noundef %93, i32 noundef %94, ptr noundef %95, i32 noundef %96, i32 noundef 8, i32 noundef %97)
  %99 = load i32, ptr %9, align 4
  %100 = add i32 %99, 8
  store i32 %100, ptr %9, align 4
  %101 = load ptr, ptr %7, align 8
  %102 = load i32, ptr @hf_cigi3_line_of_sight_extended_response_alt_zoff, align 4
  %103 = load ptr, ptr %5, align 8
  %104 = load i32, ptr %9, align 4
  %105 = load i32, ptr @cigi_byte_order, align 4
  %106 = call ptr @proto_tree_add_item(ptr noundef %101, i32 noundef %102, ptr noundef %103, i32 noundef %104, i32 noundef 8, i32 noundef %105)
  %107 = load i32, ptr %9, align 4
  %108 = add i32 %107, 8
  store i32 %108, ptr %9, align 4
  %109 = load ptr, ptr %7, align 8
  %110 = load i32, ptr @hf_cigi3_line_of_sight_extended_response_red, align 4
  %111 = load ptr, ptr %5, align 8
  %112 = load i32, ptr %9, align 4
  %113 = load i32, ptr @cigi_byte_order, align 4
  %114 = call ptr @proto_tree_add_item(ptr noundef %109, i32 noundef %110, ptr noundef %111, i32 noundef %112, i32 noundef 1, i32 noundef %113)
  %115 = load i32, ptr %9, align 4
  %116 = add i32 %115, 1
  store i32 %116, ptr %9, align 4
  %117 = load ptr, ptr %7, align 8
  %118 = load i32, ptr @hf_cigi3_line_of_sight_extended_response_green, align 4
  %119 = load ptr, ptr %5, align 8
  %120 = load i32, ptr %9, align 4
  %121 = load i32, ptr @cigi_byte_order, align 4
  %122 = call ptr @proto_tree_add_item(ptr noundef %117, i32 noundef %118, ptr noundef %119, i32 noundef %120, i32 noundef 1, i32 noundef %121)
  %123 = load i32, ptr %9, align 4
  %124 = add i32 %123, 1
  store i32 %124, ptr %9, align 4
  %125 = load ptr, ptr %7, align 8
  %126 = load i32, ptr @hf_cigi3_line_of_sight_extended_response_blue, align 4
  %127 = load ptr, ptr %5, align 8
  %128 = load i32, ptr %9, align 4
  %129 = load i32, ptr @cigi_byte_order, align 4
  %130 = call ptr @proto_tree_add_item(ptr noundef %125, i32 noundef %126, ptr noundef %127, i32 noundef %128, i32 noundef 1, i32 noundef %129)
  %131 = load i32, ptr %9, align 4
  %132 = add i32 %131, 1
  store i32 %132, ptr %9, align 4
  %133 = load ptr, ptr %7, align 8
  %134 = load i32, ptr @hf_cigi3_line_of_sight_extended_response_alpha, align 4
  %135 = load ptr, ptr %5, align 8
  %136 = load i32, ptr %9, align 4
  %137 = load i32, ptr @cigi_byte_order, align 4
  %138 = call ptr @proto_tree_add_item(ptr noundef %133, i32 noundef %134, ptr noundef %135, i32 noundef %136, i32 noundef 1, i32 noundef %137)
  %139 = load i32, ptr %9, align 4
  %140 = add i32 %139, 1
  store i32 %140, ptr %9, align 4
  %141 = load ptr, ptr %7, align 8
  %142 = load i32, ptr @hf_cigi3_line_of_sight_extended_response_material_code, align 4
  %143 = load ptr, ptr %5, align 8
  %144 = load i32, ptr %9, align 4
  %145 = load i32, ptr @cigi_byte_order, align 4
  %146 = call ptr @proto_tree_add_item(ptr noundef %141, i32 noundef %142, ptr noundef %143, i32 noundef %144, i32 noundef 4, i32 noundef %145)
  %147 = load i32, ptr %9, align 4
  %148 = add i32 %147, 4
  store i32 %148, ptr %9, align 4
  %149 = load ptr, ptr %7, align 8
  %150 = load i32, ptr @hf_cigi3_line_of_sight_extended_response_normal_vector_azimuth, align 4
  %151 = load ptr, ptr %5, align 8
  %152 = load i32, ptr %9, align 4
  %153 = load i32, ptr @cigi_byte_order, align 4
  %154 = call ptr @proto_tree_add_item(ptr noundef %149, i32 noundef %150, ptr noundef %151, i32 noundef %152, i32 noundef 4, i32 noundef %153)
  %155 = load i32, ptr %9, align 4
  %156 = add i32 %155, 4
  store i32 %156, ptr %9, align 4
  %157 = load ptr, ptr %7, align 8
  %158 = load i32, ptr @hf_cigi3_line_of_sight_extended_response_normal_vector_elevation, align 4
  %159 = load ptr, ptr %5, align 8
  %160 = load i32, ptr %9, align 4
  %161 = load i32, ptr @cigi_byte_order, align 4
  %162 = call ptr @proto_tree_add_item(ptr noundef %157, i32 noundef %158, ptr noundef %159, i32 noundef %160, i32 noundef 4, i32 noundef %161)
  %163 = load i32, ptr %9, align 4
  %164 = add i32 %163, 4
  store i32 %164, ptr %9, align 4
  %165 = load i32, ptr %9, align 4
  call void @llvm.lifetime.end.p0(i64 4, ptr %9) #5
  ret i32 %165
}