; Function Attrs: null_pointer_is_valid sspstrong uwtable
define internal noundef i32 @cigi3_add_line_of_sight_extended_response(ptr noundef %0, ptr readnone captures(none) %1, ptr noundef %2, ptr readnone captures(none) %3) #0 {
  %5 = load i32, ptr @hf_cigi3_line_of_sight_extended_response_los_id, align 4
  %.b93 = load i1, ptr @cigi_byte_order, align 4
  %6 = select i1 %.b93, i32 -2147483648, i32 0
  %7 = tail call ptr @proto_tree_add_item(ptr noundef %2, i32 noundef %5, ptr noundef %0, i32 noundef 0, i32 noundef 2, i32 noundef %6)
  %8 = load i32, ptr @hf_cigi3_line_of_sight_extended_response_valid, align 4
  %.b92 = load i1, ptr @cigi_byte_order, align 4
  %9 = select i1 %.b92, i32 -2147483648, i32 0
  %10 = tail call ptr @proto_tree_add_item(ptr noundef %2, i32 noundef %8, ptr noundef %0, i32 noundef 2, i32 noundef 1, i32 noundef %9)
  %11 = load i32, ptr @hf_cigi3_line_of_sight_extended_response_entity_id_valid, align 4
  %.b91 = load i1, ptr @cigi_byte_order, align 4
  %12 = select i1 %.b91, i32 -2147483648, i32 0
  %13 = tail call ptr @proto_tree_add_item(ptr noundef %2, i32 noundef %11, ptr noundef %0, i32 noundef 2, i32 noundef 1, i32 noundef %12)
  %14 = load i32, ptr @hf_cigi3_line_of_sight_extended_response_range_valid, align 4
  %.b90 = load i1, ptr @cigi_byte_order, align 4
  %15 = select i1 %.b90, i32 -2147483648, i32 0
  %16 = tail call ptr @proto_tree_add_item(ptr noundef %2, i32 noundef %14, ptr noundef %0, i32 noundef 2, i32 noundef 1, i32 noundef %15)
  %17 = load i32, ptr @hf_cigi3_line_of_sight_extended_response_visible, align 4
  %.b89 = load i1, ptr @cigi_byte_order, align 4
  %18 = select i1 %.b89, i32 -2147483648, i32 0
  %19 = tail call ptr @proto_tree_add_item(ptr noundef %2, i32 noundef %17, ptr noundef %0, i32 noundef 2, i32 noundef 1, i32 noundef %18)
  %20 = load i32, ptr @cigi_minor_version, align 4
  %21 = icmp sgt i32 %20, 1
  %.b88 = load i1, ptr @cigi_byte_order, align 4
  %22 = select i1 %.b88, i32 -2147483648, i32 0
  %hf_cigi3_2_line_of_sight_extended_response_host_frame_number_lsn.val = load i32, ptr @hf_cigi3_2_line_of_sight_extended_response_host_frame_number_lsn, align 4
  %hf_cigi3_line_of_sight_extended_response_intersection_coord.val = load i32, ptr @hf_cigi3_line_of_sight_extended_response_intersection_coord, align 4
  %23 = select i1 %21, i32 %hf_cigi3_2_line_of_sight_extended_response_host_frame_number_lsn.val, i32 %hf_cigi3_line_of_sight_extended_response_intersection_coord.val
  %24 = tail call ptr @proto_tree_add_item(ptr noundef %2, i32 noundef %23, ptr noundef %0, i32 noundef 2, i32 noundef 1, i32 noundef %22)
  %25 = load i32, ptr @hf_cigi3_line_of_sight_extended_response_response_count, align 4
  %.b86 = load i1, ptr @cigi_byte_order, align 4
  %26 = select i1 %.b86, i32 -2147483648, i32 0
  %27 = tail call ptr @proto_tree_add_item(ptr noundef %2, i32 noundef %25, ptr noundef %0, i32 noundef 3, i32 noundef 1, i32 noundef %26)
  %28 = load i32, ptr @hf_cigi3_line_of_sight_extended_response_entity_id, align 4
  %.b85 = load i1, ptr @cigi_byte_order, align 4
  %29 = select i1 %.b85, i32 -2147483648, i32 0
  %30 = tail call ptr @proto_tree_add_item(ptr noundef %2, i32 noundef %28, ptr noundef %0, i32 noundef 4, i32 noundef 2, i32 noundef %29)
  %31 = load i32, ptr @hf_cigi3_line_of_sight_extended_response_range, align 4
  %.b84 = load i1, ptr @cigi_byte_order, align 4
  %32 = select i1 %.b84, i32 -2147483648, i32 0
  %33 = tail call ptr @proto_tree_add_item(ptr noundef %2, i32 noundef %31, ptr noundef %0, i32 noundef 6, i32 noundef 8, i32 noundef %32)
  %34 = load i32, ptr @hf_cigi3_line_of_sight_extended_response_lat_xoff, align 4
  %.b83 = load i1, ptr @cigi_byte_order, align 4
  %35 = select i1 %.b83, i32 -2147483648, i32 0
  %36 = tail call ptr @proto_tree_add_item(ptr noundef %2, i32 noundef %34, ptr noundef %0, i32 noundef 14, i32 noundef 8, i32 noundef %35)
  %37 = load i32, ptr @hf_cigi3_line_of_sight_extended_response_lon_yoff, align 4
  %.b82 = load i1, ptr @cigi_byte_order, align 4
  %38 = select i1 %.b82, i32 -2147483648, i32 0
  %39 = tail call ptr @proto_tree_add_item(ptr noundef %2, i32 noundef %37, ptr noundef %0, i32 noundef 22, i32 noundef 8, i32 noundef %38)
  %40 = load i32, ptr @hf_cigi3_line_of_sight_extended_response_alt_zoff, align 4
  %.b81 = load i1, ptr @cigi_byte_order, align 4
  %41 = select i1 %.b81, i32 -2147483648, i32 0
  %42 = tail call ptr @proto_tree_add_item(ptr noundef %2, i32 noundef %40, ptr noundef %0, i32 noundef 30, i32 noundef 8, i32 noundef %41)
  %43 = load i32, ptr @hf_cigi3_line_of_sight_extended_response_red, align 4
  %.b80 = load i1, ptr @cigi_byte_order, align 4
  %44 = select i1 %.b80, i32 -2147483648, i32 0
  %45 = tail call ptr @proto_tree_add_item(ptr noundef %2, i32 noundef %43, ptr noundef %0, i32 noundef 38, i32 noundef 1, i32 noundef %44)
  %46 = load i32, ptr @hf_cigi3_line_of_sight_extended_response_green, align 4
  %.b79 = load i1, ptr @cigi_byte_order, align 4
  %47 = select i1 %.b79, i32 -2147483648, i32 0
  %48 = tail call ptr @proto_tree_add_item(ptr noundef %2, i32 noundef %46, ptr noundef %0, i32 noundef 39, i32 noundef 1, i32 noundef %47)
  %49 = load i32, ptr @hf_cigi3_line_of_sight_extended_response_blue, align 4
  %.b78 = load i1, ptr @cigi_byte_order, align 4
  %50 = select i1 %.b78, i32 -2147483648, i32 0
  %51 = tail call ptr @proto_tree_add_item(ptr noundef %2, i32 noundef %49, ptr noundef %0, i32 noundef 40, i32 noundef 1, i32 noundef %50)
  %52 = load i32, ptr @hf_cigi3_line_of_sight_extended_response_alpha, align 4
  %.b77 = load i1, ptr @cigi_byte_order, align 4
  %53 = select i1 %.b77, i32 -2147483648, i32 0
  %54 = tail call ptr @proto_tree_add_item(ptr noundef %2, i32 noundef %52, ptr noundef %0, i32 noundef 41, i32 noundef 1, i32 noundef %53)
  %55 = load i32, ptr @hf_cigi3_line_of_sight_extended_response_material_code, align 4
  %.b76 = load i1, ptr @cigi_byte_order, align 4
  %56 = select i1 %.b76, i32 -2147483648, i32 0
  %57 = tail call ptr @proto_tree_add_item(ptr noundef %2, i32 noundef %55, ptr noundef %0, i32 noundef 42, i32 noundef 4, i32 noundef %56)
  %58 = load i32, ptr @hf_cigi3_line_of_sight_extended_response_normal_vector_azimuth, align 4
  %.b75 = load i1, ptr @cigi_byte_order, align 4
  %59 = select i1 %.b75, i32 -2147483648, i32 0
  %60 = tail call ptr @proto_tree_add_item(ptr noundef %2, i32 noundef %58, ptr noundef %0, i32 noundef 46, i32 noundef 4, i32 noundef %59)
  %61 = load i32, ptr @hf_cigi3_line_of_sight_extended_response_normal_vector_elevation, align 4
  %.b = load i1, ptr @cigi_byte_order, align 4
  %62 = select i1 %.b, i32 -2147483648, i32 0
  %63 = tail call ptr @proto_tree_add_item(ptr noundef %2, i32 noundef %61, ptr noundef %0, i32 noundef 50, i32 noundef 4, i32 noundef %62)
  ret i32 54
}